target datalayout = "e-m:e-p270:32:32-p271:32:32-p272:64:64-i64:64-i128:128-f80:128-n8:16:32:64-S128"
target triple = "x86_64-pc-linux-gnu"

%"class.cv::ppf_match_3d::PPF3DDetector" = type <{ ptr, double, double, double, double, double, double, %"class.cv::Mat", %"class.cv::Mat", i32, [4 x i8], ptr, ptr, double, double, i8, [3 x i8], i32, i8, [7 x i8] }>
%"class.cv::Mat" = type { i32, i32, i32, i32, ptr, ptr, ptr, ptr, ptr, ptr, %"struct.cv::MatSize", %"struct.cv::MatStep" }
%"struct.cv::MatSize" = type { ptr }
%"struct.cv::MatStep" = type { ptr, [2 x i64] }
%"class.cv::Vec" = type { %"class.cv::Matx" }
%"class.cv::Matx" = type { [3 x double] }
%"struct.cv::Matx_SubOp" = type { i8 }
%"class.cv::Matx.1" = type { [4 x double] }
%"class.cv::Vec.0" = type { %"class.cv::Matx.1" }
%"class.cv::ppf_match_3d::Pose3D" = type { ptr, double, double, i64, i64, %"class.cv::Matx.6", double, %"class.cv::Vec", %"class.cv::Vec.0" }
%"class.cv::Matx.6" = type { [16 x double] }

; Function Attrs: inlinehint mustprogress nounwind uwtable
define internal noundef double @_ZN2cvL13saturate_castIdEET_d(double noundef %0) #8 {
  %2 = alloca double, align 8
  store double %0, ptr %2, align 8, !tbaa !33
  %3 = load double, ptr %2, align 8, !tbaa !33
  ret double %3
}

; Function Attrs: inlinehint mustprogress nounwind uwtable
define linkonce_odr hidden void @_ZN2cv4MatxIdLi3ELi1EEC2ERKS1_S3_NS_10Matx_SubOpE(ptr noundef nonnull align 8 dereferenceable(24) %0, ptr noundef nonnull align 8 dereferenceable(24) %1, ptr noundef nonnull align 8 dereferenceable(24) %2, ptr noundef %3) unnamed_addr #8 comdat align 2 {
  %5 = alloca ptr, align 8
  %6 = alloca ptr, align 8
  %7 = alloca ptr, align 8
  %8 = alloca ptr, align 8
  %9 = alloca i32, align 4
  store ptr %0, ptr %5, align 8, !tbaa !44
  store ptr %1, ptr %6, align 8, !tbaa !44
  store ptr %2, ptr %7, align 8, !tbaa !44
  store ptr %3, ptr %8, align 8, !tbaa !287
  %10 = load ptr, ptr %5, align 8
  call void @llvm.lifetime.start.p0(i64 4, ptr %9) #3
  store i32 0, ptr %9, align 4, !tbaa !46
  br label %11

11:                                               ; preds = %34, %4
  %12 = load i32, ptr %9, align 4, !tbaa !46
  %13 = icmp slt i32 %12, 3
  br i1 %13, label %15, label %14

14:                                               ; preds = %11
  call void @llvm.lifetime.end.p0(i64 4, ptr %9) #3
  br label %37

15:                                               ; preds = %11
  %16 = load ptr, ptr %6, align 8, !tbaa !44
  %17 = getelementptr inbounds nuw %"class.cv::Matx", ptr %16, i32 0, i32 0
  %18 = load i32, ptr %9, align 4, !tbaa !46
  %19 = sext i32 %18 to i64
  %20 = getelementptr inbounds [3 x double], ptr %17, i64 0, i64 %19
  %21 = load double, ptr %20, align 8, !tbaa !33
  %22 = load ptr, ptr %7, align 8, !tbaa !44
  %23 = getelementptr inbounds nuw %"class.cv::Matx", ptr %22, i32 0, i32 0
  %24 = load i32, ptr %9, align 4, !tbaa !46
  %25 = sext i32 %24 to i64
  %26 = getelementptr inbounds [3 x double], ptr %23, i64 0, i64 %25
  %27 = load double, ptr %26, align 8, !tbaa !33
  %28 = fsub double %21, %27
  %29 = call noundef double @_ZN2cvL13saturate_castIdEET_d(double noundef %28)
  %30 = getelementptr inbounds nuw %"class.cv::Matx", ptr %10, i32 0, i32 0
  %31 = load i32, ptr %9, align 4, !tbaa !46
  %32 = sext i32 %31 to i64
  %33 = getelementptr inbounds [3 x double], ptr %30, i64 0, i64 %32
  store double %29, ptr %33, align 8, !tbaa !33
  br label %34

34:                                               ; preds = %15
  %35 = load i32, ptr %9, align 4, !tbaa !46
  %36 = add nsw i32 %35, 1
  store i32 %36, ptr %9, align 4, !tbaa !46
  br label %11, !llvm.loop !289

37:                                               ; preds = %14
  ret void
}

; Function Attrs: mustprogress nounwind uwtable
define linkonce_odr hidden void @_ZN2cv10Matx_SubOpC2ERKS0_(ptr noundef nonnull align 1 dereferenceable(1) %0, ptr noundef nonnull align 1 dereferenceable(1) %1) unnamed_addr #5 comdat align 2 {
  %3 = alloca ptr, align 8
  %4 = alloca ptr, align 8
  store ptr %0, ptr %3, align 8, !tbaa !287
  store ptr %1, ptr %4, align 8, !tbaa !287
  ret void
}

; Function Attrs: inlinehint mustprogress nounwind uwtable
define internal noundef double @_ZN2cvL9normL2SqrIddEET0_PKT_i(ptr noundef %0, i32 noundef %1) #8 {
  %3 = alloca ptr, align 8
  %4 = alloca i32, align 4
  %5 = alloca double, align 8
  %6 = alloca i32, align 4
  %7 = alloca double, align 8
  store ptr %0, ptr %3, align 8, !tbaa !274
  store i32 %1, ptr %4, align 4, !tbaa !46
  call void @llvm.lifetime.start.p0(i64 8, ptr %5) #3
  store double 0.000000e+00, ptr %5, align 8, !tbaa !33
  call void @llvm.lifetime.start.p0(i64 4, ptr %6) #3
  store i32 0, ptr %6, align 4, !tbaa !46
  br label %8

8:                                                ; preds = %22, %2
  %9 = load i32, ptr %6, align 4, !tbaa !46
  %10 = load i32, ptr %4, align 4, !tbaa !46
  %11 = icmp slt i32 %9, %10
  br i1 %11, label %12, label %25

12:                                               ; preds = %8
  call void @llvm.lifetime.start.p0(i64 8, ptr %7) #3
  %13 = load ptr, ptr %3, align 8, !tbaa !274
  %14 = load i32, ptr %6, align 4, !tbaa !46
  %15 = sext i32 %14 to i64
  %16 = getelementptr inbounds double, ptr %13, i64 %15
  %17 = load double, ptr %16, align 8, !tbaa !33
  store double %17, ptr %7, align 8, !tbaa !33
  %18 = load double, ptr %7, align 8, !tbaa !33
  %19 = load double, ptr %7, align 8, !tbaa !33
  %20 = load double, ptr %5, align 8, !tbaa !33
  %21 = call double @llvm.fmuladd.f64(double %18, double %19, double %20)
  store double %21, ptr %5, align 8, !tbaa !33
  call void @llvm.lifetime.end.p0(i64 8, ptr %7) #3
  br label %22

22:                                               ; preds = %12
  %23 = load i32, ptr %6, align 4, !tbaa !46
  %24 = add nsw i32 %23, 1
  store i32 %24, ptr %6, align 4, !tbaa !46
  br label %8, !llvm.loop !276

25:                                               ; preds = %8
  %26 = load double, ptr %5, align 8, !tbaa !33
  call void @llvm.lifetime.end.p0(i64 4, ptr %6) #3
  call void @llvm.lifetime.end.p0(i64 8, ptr %5) #3
  ret double %26
}

; Function Attrs: inlinehint mustprogress uwtable
define linkonce_odr hidden void @_ZN2cv3VecIdLi3EEC2ERKNS_4MatxIdLi3ELi1EEES5_NS_10Matx_SubOpE(ptr noundef nonnull align 8 dereferenceable(24) %0, ptr noundef nonnull align 8 dereferenceable(24) %1, ptr noundef nonnull align 8 dereferenceable(24) %2, ptr noundef %3) unnamed_addr #7 comdat align 2 {
  %5 = alloca ptr, align 8
  %6 = alloca ptr, align 8
  %7 = alloca ptr, align 8
  %8 = alloca ptr, align 8
  %9 = alloca %"struct.cv::Matx_SubOp", align 1
  store ptr %0, ptr %5, align 8, !tbaa !40
  store ptr %1, ptr %6, align 8, !tbaa !44
  store ptr %2, ptr %7, align 8, !tbaa !44
  store ptr %3, ptr %8, align 8, !tbaa !287
  %10 = load ptr, ptr %5, align 8
  %11 = load ptr, ptr %6, align 8, !tbaa !44
  %12 = load ptr, ptr %7, align 8, !tbaa !44
  call void @_ZN2cv10Matx_SubOpC2ERKS0_(ptr noundef nonnull align 1 dereferenceable(1) %9, ptr noundef nonnull align 1 dereferenceable(1) %3)
  call void @_ZN2cv4MatxIdLi3ELi1EEC2ERKS1_S3_NS_10Matx_SubOpE(ptr noundef nonnull align 8 dereferenceable(24) %10, ptr noundef nonnull align 8 dereferenceable(24) %11, ptr noundef nonnull align 8 dereferenceable(24) %12, ptr noundef %9)
  ret void
}

; Function Attrs: mustprogress nounwind uwtable
define linkonce_odr hidden void @_ZN2cv10Matx_SubOpC2Ev(ptr noundef nonnull align 1 dereferenceable(1) %0) unnamed_addr #5 comdat align 2 {
  %2 = alloca ptr, align 8
  store ptr %0, ptr %2, align 8, !tbaa !287
  ret void
}

; Function Attrs: inlinehint mustprogress uwtable
define internal noundef double @_ZN2cvL4normIdLi3ELi1EEEdRKNS_4MatxIT_XT0_EXT1_EEE(ptr noundef nonnull align 8 dereferenceable(24) %0) #7 {
  %2 = alloca ptr, align 8
  store ptr %0, ptr %2, align 8, !tbaa !44
  %3 = load ptr, ptr %2, align 8, !tbaa !44
  %4 = getelementptr inbounds nuw %"class.cv::Matx", ptr %3, i32 0, i32 0
  %5 = getelementptr inbounds [3 x double], ptr %4, i64 0, i64 0
  %6 = call noundef double @_ZN2cvL9normL2SqrIddEET0_PKT_i(ptr noundef %5, i32 noundef 3)
  %7 = call double @sqrt(double noundef %6) #3, !tbaa !46
  ret double %7
}

; Function Attrs: inlinehint mustprogress uwtable
define internal void @_ZN2cvmiIdLi3EEENS_3VecIT_XT0_EEERKS3_S5_(ptr dead_on_unwind noalias writable sret(%"class.cv::Vec") align 8 %0, ptr noundef nonnull align 8 dereferenceable(24) %1, ptr noundef nonnull align 8 dereferenceable(24) %2) #7 {
  %4 = alloca ptr, align 8
  %5 = alloca ptr, align 8
  %6 = alloca ptr, align 8
  %7 = alloca %"struct.cv::Matx_SubOp", align 1
  store ptr %0, ptr %4, align 8
  store ptr %1, ptr %5, align 8, !tbaa !40
  store ptr %2, ptr %6, align 8, !tbaa !40
  %8 = load ptr, ptr %5, align 8, !tbaa !40
  %9 = load ptr, ptr %6, align 8, !tbaa !40
  call void @_ZN2cv10Matx_SubOpC2Ev(ptr noundef nonnull align 1 dereferenceable(1) %7)
  call void @_ZN2cv3VecIdLi3EEC2ERKNS_4MatxIdLi3ELi1EEES5_NS_10Matx_SubOpE(ptr noundef nonnull align 8 dereferenceable(24) %0, ptr noundef nonnull align 8 dereferenceable(24) %8, ptr noundef nonnull align 8 dereferenceable(24) %9, ptr noundef %7)
  ret void
}

; Function Attrs: mustprogress uwtable
define noundef zeroext i1 @_ZN2cv12ppf_match_3d13PPF3DDetector9matchPoseERKNS0_6Pose3DES4_(ptr noundef nonnull align 8 dereferenceable(297) %0, ptr noundef nonnull align 8 dereferenceable(232) %1, ptr noundef nonnull align 8 dereferenceable(232) %2) #4 align 2 {
  %4 = alloca ptr, align 8
  %5 = alloca ptr, align 8
  %6 = alloca ptr, align 8
  %7 = alloca %"class.cv::Vec", align 8
  %8 = alloca double, align 8
  %9 = alloca double, align 8
  store ptr %0, ptr %4, align 8, !tbaa !3
  store ptr %1, ptr %5, align 8, !tbaa !91
  store ptr %2, ptr %6, align 8, !tbaa !91
  %10 = load ptr, ptr %4, align 8
  call void @llvm.lifetime.start.p0(i64 24, ptr %7) #3
  %11 = load ptr, ptr %6, align 8, !tbaa !91
  %12 = getelementptr inbounds nuw %"class.cv::ppf_match_3d::Pose3D", ptr %11, i32 0, i32 7
  %13 = load ptr, ptr %5, align 8, !tbaa !91
  %14 = getelementptr inbounds nuw %"class.cv::ppf_match_3d::Pose3D", ptr %13, i32 0, i32 7
  call void @_ZN2cvmiIdLi3EEENS_3VecIT_XT0_EEERKS3_S5_(ptr dead_on_unwind writable sret(%"class.cv::Vec") align 8 %7, ptr noundef nonnull align 8 dereferenceable(24) %12, ptr noundef nonnull align 8 dereferenceable(24) %14)
  call void @llvm.lifetime.start.p0(i64 8, ptr %8) #3
  %15 = call noundef double @_ZN2cvL4normIdLi3ELi1EEEdRKNS_4MatxIT_XT0_EXT1_EEE(ptr noundef nonnull align 8 dereferenceable(24) %7)
  store double %15, ptr %8, align 8, !tbaa !33
  call void @llvm.lifetime.start.p0(i64 8, ptr %9) #3
  %16 = load ptr, ptr %5, align 8, !tbaa !91
  %17 = getelementptr inbounds nuw %"class.cv::ppf_match_3d::Pose3D", ptr %16, i32 0, i32 6
  %18 = load double, ptr %17, align 8, !tbaa !93
  %19 = load ptr, ptr %6, align 8, !tbaa !91
  %20 = getelementptr inbounds nuw %"class.cv::ppf_match_3d::Pose3D", ptr %19, i32 0, i32 6
  %21 = load double, ptr %20, align 8, !tbaa !93
  %22 = fsub double %18, %21
  %23 = call double @llvm.fabs.f64(double %22)
  store double %23, ptr %9, align 8, !tbaa !33
  %24 = load double, ptr %9, align 8, !tbaa !33
  %25 = getelementptr inbounds nuw %"class.cv::ppf_match_3d::PPF3DDetector", ptr %10, i32 0, i32 14
  %26 = load double, ptr %25, align 8, !tbaa !36
  %27 = fcmp olt double %24, %26
  br i1 %27, label %28, label %33

28:                                               ; preds = %3
  %29 = load double, ptr %8, align 8, !tbaa !33
  %30 = getelementptr inbounds nuw %"class.cv::ppf_match_3d::PPF3DDetector", ptr %10, i32 0, i32 13
  %31 = load double, ptr %30, align 8, !tbaa !35
  %32 = fcmp olt double %29, %31
  br label %33

33:                                               ; preds = %28, %3
  %34 = phi i1 [ false, %3 ], [ %32, %28 ]
  call void @llvm.lifetime.end.p0(i64 8, ptr %9) #3
  call void @llvm.lifetime.end.p0(i64 8, ptr %8) #3
  call void @llvm.lifetime.end.p0(i64 24, ptr %7) #3
  ret i1 %34
}