; Function Attrs: mustprogress nofree nounwind memory(write, argmem: readwrite, inaccessiblemem: readwrite) uwtable
define noundef zeroext i1 @_ZN2cv12ppf_match_3d13PPF3DDetector9matchPoseERKNS0_6Pose3DES4_(ptr noundef nonnull readonly align 8 captures(none) dereferenceable(297) %0, ptr noundef nonnull readonly align 8 captures(none) dereferenceable(232) %1, ptr noundef nonnull readonly align 8 captures(none) dereferenceable(232) %2) local_unnamed_addr #5 align 2 {
  %4 = alloca %"class.cv::Vec", align 8
  call void @llvm.lifetime.start.p0(i64 24, ptr nonnull %4) #27
  %5 = getelementptr inbounds nuw i8, ptr %2, i64 176
  %6 = getelementptr inbounds nuw i8, ptr %1, i64 176
  tail call void @llvm.experimental.noalias.scope.decl(metadata !116)
  br label %7

7:                                                ; preds = %7, %3
  %indvars.iv.i.i.i = phi i64 [ 0, %3 ], [ %indvars.iv.next.i.i.i, %7 ]
  %8 = getelementptr inbounds nuw [3 x double], ptr %5, i64 0, i64 %indvars.iv.i.i.i
  %9 = load double, ptr %8, align 8, !tbaa !35, !noalias !116
  %10 = getelementptr inbounds nuw [3 x double], ptr %6, i64 0, i64 %indvars.iv.i.i.i
  %11 = load double, ptr %10, align 8, !tbaa !35, !noalias !116
  %12 = fsub double %9, %11
  %13 = getelementptr inbounds nuw [3 x double], ptr %4, i64 0, i64 %indvars.iv.i.i.i
  store double %12, ptr %13, align 8, !tbaa !35, !alias.scope !116
  %indvars.iv.next.i.i.i = add nuw nsw i64 %indvars.iv.i.i.i, 1
  %exitcond.not.i.i.i = icmp eq i64 %indvars.iv.next.i.i.i, 3
  br i1 %exitcond.not.i.i.i, label %_ZN2cvmiIdLi3EEENS_3VecIT_XT0_EEERKS3_S5_.exit, label %7, !llvm.loop !36

_ZN2cvmiIdLi3EEENS_3VecIT_XT0_EEERKS3_S5_.exit:   ; preds = %7, %_ZN2cvmiIdLi3EEENS_3VecIT_XT0_EEERKS3_S5_.exit
  %indvars.iv.i.i = phi i64 [ %indvars.iv.next.i.i, %_ZN2cvmiIdLi3EEENS_3VecIT_XT0_EEERKS3_S5_.exit ], [ 0, %7 ]
  %.010.i.i = phi double [ %16, %_ZN2cvmiIdLi3EEENS_3VecIT_XT0_EEERKS3_S5_.exit ], [ 0.000000e+00, %7 ]
  %14 = getelementptr inbounds nuw double, ptr %4, i64 %indvars.iv.i.i
  %15 = load double, ptr %14, align 8, !tbaa !35
  %16 = tail call double @llvm.fmuladd.f64(double %15, double %15, double %.010.i.i)
  %indvars.iv.next.i.i = add nuw nsw i64 %indvars.iv.i.i, 1
  %exitcond.not.i.i = icmp eq i64 %indvars.iv.next.i.i, 3
  br i1 %exitcond.not.i.i, label %_ZN2cvL4normIdLi3ELi1EEEdRKNS_4MatxIT_XT0_EXT1_EEE.exit, label %_ZN2cvmiIdLi3EEENS_3VecIT_XT0_EEERKS3_S5_.exit, !llvm.loop !38

_ZN2cvL4normIdLi3ELi1EEEdRKNS_4MatxIT_XT0_EXT1_EEE.exit: ; preds = %_ZN2cvmiIdLi3EEENS_3VecIT_XT0_EEERKS3_S5_.exit
  %17 = tail call noundef double @sqrt(double noundef %16) #27, !tbaa !39
  %18 = getelementptr inbounds nuw i8, ptr %1, i64 168
  %19 = load double, ptr %18, align 8, !tbaa !119
  %20 = getelementptr inbounds nuw i8, ptr %2, i64 168
  %21 = load double, ptr %20, align 8, !tbaa !119
  %22 = fsub double %19, %21
  %23 = tail call double @llvm.fabs.f64(double %22)
  %24 = getelementptr inbounds nuw i8, ptr %0, i64 280
  %25 = load double, ptr %24, align 8, !tbaa !30
  %26 = fcmp olt double %23, %25
  %27 = getelementptr inbounds nuw i8, ptr %0, i64 272
  %28 = load double, ptr %27, align 8
  %29 = fcmp olt double %17, %28
  %30 = select i1 %26, i1 %29, i1 false
  call void @llvm.lifetime.end.p0(i64 24, ptr nonnull %4) #27
  ret i1 %30
}